target datalayout = "e-m:e-p270:32:32-p271:32:32-p272:64:64-i64:64-i128:128-f80:128-n8:16:32:64-S128"
target triple = "x86_64-pc-linux-gnu"

@hf_security_info_option = internal global i32 0, align 4
@hf_security_info_md5_checksum = internal global i32 0, align 4

; Function Attrs: null_pointer_is_valid sspstrong uwtable
define internal i32 @dissect_wccp2_security_info(ptr noundef %0, i32 noundef %1, i32 noundef %2, ptr noundef %3, ptr noundef %4, ptr noundef %5) #0 {
  %7 = alloca i32, align 4
  %8 = alloca ptr, align 8
  %9 = alloca i32, align 4
  %10 = alloca i32, align 4
  %11 = alloca ptr, align 8
  %12 = alloca ptr, align 8
  %13 = alloca ptr, align 8
  %14 = alloca i32, align 4
  %15 = alloca i32, align 4
  store ptr %0, ptr %8, align 8
  store i32 %1, ptr %9, align 4
  store i32 %2, ptr %10, align 4
  store ptr %3, ptr %11, align 8
  store ptr %4, ptr %12, align 8
  store ptr %5, ptr %13, align 8
  call void @llvm.lifetime.start.p0(i64 4, ptr %14) #9
  %16 = load i32, ptr %10, align 4
  %17 = icmp slt i32 %16, 4
  br i1 %17, label %18, label %21

18:                                               ; preds = %6
  %19 = load i32, ptr %10, align 4
  %20 = sub i32 %19, 4
  store i32 %20, ptr %7, align 4
  store i32 1, ptr %15, align 4
  br label %48

21:                                               ; preds = %6
  %22 = load ptr, ptr %8, align 8
  %23 = load i32, ptr %9, align 4
  %24 = call i32 @tvb_get_ntohl(ptr noundef %22, i32 noundef %23)
  store i32 %24, ptr %14, align 4
  %25 = load ptr, ptr %12, align 8
  %26 = load i32, ptr @hf_security_info_option, align 4
  %27 = load ptr, ptr %8, align 8
  %28 = load i32, ptr %9, align 4
  %29 = call ptr @proto_tree_add_item(ptr noundef %25, i32 noundef %26, ptr noundef %27, i32 noundef %28, i32 noundef 4, i32 noundef 0)
  %30 = load i32, ptr %14, align 4
  %31 = icmp eq i32 %30, 1
  br i1 %31, label %32, label %45

32:                                               ; preds = %21
  %33 = load i32, ptr %9, align 4
  %34 = add i32 %33, 4
  store i32 %34, ptr %9, align 4
  %35 = load ptr, ptr %12, align 8
  %36 = load i32, ptr @hf_security_info_md5_checksum, align 4
  %37 = load ptr, ptr %8, align 8
  %38 = load i32, ptr %9, align 4
  %39 = load i32, ptr %10, align 4
  %40 = sub i32 %39, 4
  %41 = call ptr @proto_tree_add_item(ptr noundef %35, i32 noundef %36, ptr noundef %37, i32 noundef %38, i32 noundef %40, i32 noundef 0)
  %42 = load i32, ptr %10, align 4
  %43 = sub i32 %42, 4
  %44 = sub i32 %43, 16
  store i32 %44, ptr %7, align 4
  store i32 1, ptr %15, align 4
  br label %48

45:                                               ; preds = %21
  %46 = load i32, ptr %10, align 4
  %47 = sub i32 %46, 4
  store i32 %47, ptr %7, align 4
  store i32 1, ptr %15, align 4
  br label %48

48:                                               ; preds = %45, %32, %18
  call void @llvm.lifetime.end.p0(i64 4, ptr %14) #9
  %49 = load i32, ptr %7, align 4
  ret i32 %49
}