; Function Attrs: null_pointer_is_valid sspstrong uwtable
define internal noundef i32 @dissect_wccp2_security_info(ptr noundef %0, i32 noundef %1, i32 noundef %2, ptr readnone captures(none) %3, ptr noundef %4, ptr readnone captures(none) %5) unnamed_addr #0 {
  %7 = icmp slt i32 %2, 4
  br i1 %7, label %18, label %8

8:                                                ; preds = %6
  %9 = tail call i32 @tvb_get_ntohl(ptr noundef %0, i32 noundef %1)
  %10 = load i32, ptr @hf_security_info_option, align 4
  %11 = tail call ptr @proto_tree_add_item(ptr noundef %4, i32 noundef %10, ptr noundef %0, i32 noundef %1, i32 noundef 4, i32 noundef 0)
  %12 = icmp eq i32 %9, 1
  br i1 %12, label %13, label %18

13:                                               ; preds = %8
  %14 = add i32 %1, 4
  %15 = load i32, ptr @hf_security_info_md5_checksum, align 4
  %16 = add nsw i32 %2, -4
  %17 = tail call ptr @proto_tree_add_item(ptr noundef %4, i32 noundef %15, ptr noundef %0, i32 noundef %14, i32 noundef %16, i32 noundef 0)
  br label %18

18:                                               ; preds = %8, %6, %13
  %.sink = phi i32 [ -20, %13 ], [ -4, %6 ], [ -4, %8 ]
  %19 = add i32 %2, %.sink
  ret i32 %19
}